target datalayout = "e-m:e-p270:32:32-p271:32:32-p272:64:64-i64:64-i128:128-f80:128-n8:16:32:64-S128"
target triple = "x86_64-pc-linux-gnu"

@.str.15 = private unnamed_addr constant [9 x i8] c"no error\00", align 1
@.str.16 = private unnamed_addr constant [16 x i8] c"undefined error\00", align 1
@.str.17 = private unnamed_addr constant [15 x i8] c"too many files\00", align 1
@.str.18 = private unnamed_addr constant [15 x i8] c"file too large\00", align 1
@.str.19 = private unnamed_addr constant [19 x i8] c"unsupported method\00", align 1
@.str.20 = private unnamed_addr constant [23 x i8] c"unsupported encryption\00", align 1
@.str.21 = private unnamed_addr constant [20 x i8] c"unsupported feature\00", align 1
@.str.22 = private unnamed_addr constant [33 x i8] c"failed finding central directory\00", align 1
@.str.23 = private unnamed_addr constant [18 x i8] c"not a ZIP archive\00", align 1
@.str.24 = private unnamed_addr constant [39 x i8] c"invalid header or archive is corrupted\00", align 1
@.str.25 = private unnamed_addr constant [30 x i8] c"unsupported multidisk archive\00", align 1
@.str.26 = private unnamed_addr constant [45 x i8] c"decompression failed or archive is corrupted\00", align 1
@.str.27 = private unnamed_addr constant [19 x i8] c"compression failed\00", align 1
@.str.28 = private unnamed_addr constant [29 x i8] c"unexpected decompressed size\00", align 1
@.str.29 = private unnamed_addr constant [20 x i8] c"CRC-32 check failed\00", align 1
@.str.30 = private unnamed_addr constant [35 x i8] c"unsupported central directory size\00", align 1
@.str.31 = private unnamed_addr constant [18 x i8] c"allocation failed\00", align 1
@.str.32 = private unnamed_addr constant [17 x i8] c"file open failed\00", align 1
@.str.33 = private unnamed_addr constant [19 x i8] c"file create failed\00", align 1
@.str.34 = private unnamed_addr constant [18 x i8] c"file write failed\00", align 1
@.str.35 = private unnamed_addr constant [17 x i8] c"file read failed\00", align 1
@.str.36 = private unnamed_addr constant [18 x i8] c"file close failed\00", align 1
@.str.37 = private unnamed_addr constant [17 x i8] c"file seek failed\00", align 1
@.str.38 = private unnamed_addr constant [17 x i8] c"file stat failed\00", align 1
@.str.39 = private unnamed_addr constant [18 x i8] c"invalid parameter\00", align 1
@.str.40 = private unnamed_addr constant [17 x i8] c"invalid filename\00", align 1
@.str.41 = private unnamed_addr constant [17 x i8] c"buffer too small\00", align 1
@.str.42 = private unnamed_addr constant [15 x i8] c"internal error\00", align 1
@.str.43 = private unnamed_addr constant [15 x i8] c"file not found\00", align 1
@.str.44 = private unnamed_addr constant [21 x i8] c"archive is too large\00", align 1
@.str.45 = private unnamed_addr constant [18 x i8] c"validation failed\00", align 1
@.str.46 = private unnamed_addr constant [24 x i8] c"write calledback failed\00", align 1
@.str.47 = private unnamed_addr constant [14 x i8] c"unknown error\00", align 1

; Function Attrs: mustprogress nounwind uwtable
define noundef ptr @_ZN12duckdb_miniz23mz_zip_get_error_stringENS_12mz_zip_errorE(i32 noundef %0) #0 {
  %2 = alloca ptr, align 8
  %3 = alloca i32, align 4
  store i32 %0, ptr %3, align 4, !tbaa !242
  %4 = load i32, ptr %3, align 4, !tbaa !242
  switch i32 %4, label %37 [
    i32 0, label %5
    i32 1, label %6
    i32 2, label %7
    i32 3, label %8
    i32 4, label %9
    i32 5, label %10
    i32 6, label %11
    i32 7, label %12
    i32 8, label %13
    i32 9, label %14
    i32 10, label %15
    i32 11, label %16
    i32 12, label %17
    i32 13, label %18
    i32 14, label %19
    i32 15, label %20
    i32 16, label %21
    i32 17, label %22
    i32 18, label %23
    i32 19, label %24
    i32 20, label %25
    i32 21, label %26
    i32 22, label %27
    i32 23, label %28
    i32 24, label %29
    i32 25, label %30
    i32 26, label %31
    i32 27, label %32
    i32 28, label %33
    i32 29, label %34
    i32 30, label %35
    i32 31, label %36
  ]

5:                                                ; preds = %1
  store ptr @.str.15, ptr %2, align 8
  br label %39

6:                                                ; preds = %1
  store ptr @.str.16, ptr %2, align 8
  br label %39

7:                                                ; preds = %1
  store ptr @.str.17, ptr %2, align 8
  br label %39

8:                                                ; preds = %1
  store ptr @.str.18, ptr %2, align 8
  br label %39

9:                                                ; preds = %1
  store ptr @.str.19, ptr %2, align 8
  br label %39

10:                                               ; preds = %1
  store ptr @.str.20, ptr %2, align 8
  br label %39

11:                                               ; preds = %1
  store ptr @.str.21, ptr %2, align 8
  br label %39

12:                                               ; preds = %1
  store ptr @.str.22, ptr %2, align 8
  br label %39

13:                                               ; preds = %1
  store ptr @.str.23, ptr %2, align 8
  br label %39

14:                                               ; preds = %1
  store ptr @.str.24, ptr %2, align 8
  br label %39

15:                                               ; preds = %1
  store ptr @.str.25, ptr %2, align 8
  br label %39

16:                                               ; preds = %1
  store ptr @.str.26, ptr %2, align 8
  br label %39

17:                                               ; preds = %1
  store ptr @.str.27, ptr %2, align 8
  br label %39

18:                                               ; preds = %1
  store ptr @.str.28, ptr %2, align 8
  br label %39

19:                                               ; preds = %1
  store ptr @.str.29, ptr %2, align 8
  br label %39

20:                                               ; preds = %1
  store ptr @.str.30, ptr %2, align 8
  br label %39

21:                                               ; preds = %1
  store ptr @.str.31, ptr %2, align 8
  br label %39

22:                                               ; preds = %1
  store ptr @.str.32, ptr %2, align 8
  br label %39

23:                                               ; preds = %1
  store ptr @.str.33, ptr %2, align 8
  br label %39

24:                                               ; preds = %1
  store ptr @.str.34, ptr %2, align 8
  br label %39

25:                                               ; preds = %1
  store ptr @.str.35, ptr %2, align 8
  br label %39

26:                                               ; preds = %1
  store ptr @.str.36, ptr %2, align 8
  br label %39

27:                                               ; preds = %1
  store ptr @.str.37, ptr %2, align 8
  br label %39

28:                                               ; preds = %1
  store ptr @.str.38, ptr %2, align 8
  br label %39

29:                                               ; preds = %1
  store ptr @.str.39, ptr %2, align 8
  br label %39

30:                                               ; preds = %1
  store ptr @.str.40, ptr %2, align 8
  br label %39

31:                                               ; preds = %1
  store ptr @.str.41, ptr %2, align 8
  br label %39

32:                                               ; preds = %1
  store ptr @.str.42, ptr %2, align 8
  br label %39

33:                                               ; preds = %1
  store ptr @.str.43, ptr %2, align 8
  br label %39

34:                                               ; preds = %1
  store ptr @.str.44, ptr %2, align 8
  br label %39

35:                                               ; preds = %1
  store ptr @.str.45, ptr %2, align 8
  br label %39

36:                                               ; preds = %1
  store ptr @.str.46, ptr %2, align 8
  br label %39

37:                                               ; preds = %1
  br label %38

38:                                               ; preds = %37
  store ptr @.str.47, ptr %2, align 8
  br label %39

39:                                               ; preds = %38, %36, %35, %34, %33, %32, %31, %30, %29, %28, %27, %26, %25, %24, %23, %22, %21, %20, %19, %18, %17, %16, %15, %14, %13, %12, %11, %10, %9, %8, %7, %6, %5
  %40 = load ptr, ptr %2, align 8
  ret ptr %40
}