; Function Attrs: mustprogress nofree norecurse nosync nounwind willreturn memory(none) uwtable
define noundef nonnull ptr @_ZN12duckdb_miniz23mz_zip_get_error_stringENS_12mz_zip_errorE(i32 noundef %0) local_unnamed_addr #7 {
  %2 = icmp ult i32 %0, 32
  br i1 %2, label %switch.lookup, label %4

switch.lookup:                                    ; preds = %1
  %3 = zext nneg i32 %0 to i64
  %switch.gep = getelementptr inbounds nuw [32 x ptr], ptr @switch.table._ZN12duckdb_miniz23mz_zip_get_error_stringENS_12mz_zip_errorE, i64 0, i64 %3
  %switch.load = load ptr, ptr %switch.gep, align 8
  br label %4

4:                                                ; preds = %1, %switch.lookup
  %.0 = phi ptr [ %switch.load, %switch.lookup ], [ @.str.47, %1 ]
  ret ptr %.0
}